target datalayout = "e-m:e-p270:32:32-p271:32:32-p272:64:64-i64:64-i128:128-f80:128-n8:16:32:64-S128"
target triple = "x86_64-pc-linux-gnu"

%"struct.net::HpackHuffmanSymbol" = type { i32, i8, i16 }

; Function Attrs: mustprogress nounwind uwtable
define internal noundef zeroext i1 @_ZN3net12_GLOBAL__N_124SymbolLengthAndIdCompareERKNS_18HpackHuffmanSymbolES3_(ptr noundef nonnull align 4 dereferenceable(8) %0, ptr noundef nonnull align 4 dereferenceable(8) %1) #0 {
  %3 = alloca i1, align 1
  %4 = alloca ptr, align 8
  %5 = alloca ptr, align 8
  store ptr %0, ptr %4, align 8, !tbaa !44
  store ptr %1, ptr %5, align 8, !tbaa !44
  %6 = load ptr, ptr %4, align 8, !tbaa !44
  %7 = getelementptr inbounds nuw %"struct.net::HpackHuffmanSymbol", ptr %6, i32 0, i32 1
  %8 = load i8, ptr %7, align 4, !tbaa !69
  %9 = zext i8 %8 to i32
  %10 = load ptr, ptr %5, align 8, !tbaa !44
  %11 = getelementptr inbounds nuw %"struct.net::HpackHuffmanSymbol", ptr %10, i32 0, i32 1
  %12 = load i8, ptr %11, align 4, !tbaa !69
  %13 = zext i8 %12 to i32
  %14 = icmp eq i32 %9, %13
  br i1 %14, label %15, label %25

15:                                               ; preds = %2
  %16 = load ptr, ptr %4, align 8, !tbaa !44
  %17 = getelementptr inbounds nuw %"struct.net::HpackHuffmanSymbol", ptr %16, i32 0, i32 2
  %18 = load i16, ptr %17, align 2, !tbaa !47
  %19 = zext i16 %18 to i32
  %20 = load ptr, ptr %5, align 8, !tbaa !44
  %21 = getelementptr inbounds nuw %"struct.net::HpackHuffmanSymbol", ptr %20, i32 0, i32 2
  %22 = load i16, ptr %21, align 2, !tbaa !47
  %23 = zext i16 %22 to i32
  %24 = icmp slt i32 %19, %23
  store i1 %24, ptr %3, align 1
  br label %35

25:                                               ; preds = %2
  %26 = load ptr, ptr %4, align 8, !tbaa !44
  %27 = getelementptr inbounds nuw %"struct.net::HpackHuffmanSymbol", ptr %26, i32 0, i32 1
  %28 = load i8, ptr %27, align 4, !tbaa !69
  %29 = zext i8 %28 to i32
  %30 = load ptr, ptr %5, align 8, !tbaa !44
  %31 = getelementptr inbounds nuw %"struct.net::HpackHuffmanSymbol", ptr %30, i32 0, i32 1
  %32 = load i8, ptr %31, align 4, !tbaa !69
  %33 = zext i8 %32 to i32
  %34 = icmp slt i32 %29, %33
  store i1 %34, ptr %3, align 1
  br label %35

35:                                               ; preds = %25, %15
  %36 = load i1, ptr %3, align 1
  ret i1 %36
}