; Function Attrs: mustprogress nofree norecurse nosync nounwind willreturn memory(argmem: read) uwtable
define internal noundef zeroext i1 @_ZN3net12_GLOBAL__N_124SymbolLengthAndIdCompareERKNS_18HpackHuffmanSymbolES3_(ptr noundef nonnull readonly align 4 captures(none) dereferenceable(8) %0, ptr noundef nonnull readonly align 4 captures(none) dereferenceable(8) %1) #1 {
  %3 = getelementptr inbounds nuw i8, ptr %0, i64 4
  %4 = load i8, ptr %3, align 4, !tbaa !38
  %5 = getelementptr inbounds nuw i8, ptr %1, i64 4
  %6 = load i8, ptr %5, align 4, !tbaa !38
  %7 = icmp eq i8 %4, %6
  %8 = getelementptr inbounds nuw i8, ptr %0, i64 6
  %9 = load i16, ptr %8, align 2
  %10 = getelementptr inbounds nuw i8, ptr %1, i64 6
  %11 = load i16, ptr %10, align 2
  %12 = icmp ult i16 %9, %11
  %13 = icmp ult i8 %4, %6
  %.0 = select i1 %7, i1 %12, i1 %13
  ret i1 %.0
}